target datalayout = "e-m:e-p270:32:32-p271:32:32-p272:64:64-i64:64-i128:128-f80:128-n8:16:32:64-S128"
target triple = "x86_64-pc-linux-gnu"

%struct._zval_struct = type { %union._zend_value, %union.anon.3, %union.anon.6 }
%union._zend_value = type { i64 }
%union.anon.3 = type { i32 }
%union.anon.6 = type { i32 }
%struct._zend_refcounted_h = type { i32, %union.anon.1 }
%union.anon.1 = type { i32 }
%struct._pdo_stmt_t = type { ptr, ptr, [6 x i8], i16, ptr, ptr, ptr, ptr, i32, i32, %union.anon, ptr, ptr, ptr, i64, ptr, ptr, ptr, %struct._zend_object }
%union.anon = type { %struct.anon.0 }
%struct.anon.0 = type { %struct._zend_fcall_info_cache }
%struct._zend_fcall_info_cache = type { ptr, ptr, ptr, ptr, ptr }
%struct._zend_object = type { %struct._zend_refcounted_h, i32, i32, ptr, ptr, ptr, [1 x %struct._zval_struct] }
%struct.anon.4 = type { i8, i8, %union.anon.5 }
%union.anon.5 = type { i16 }
%struct.php_pdo_iterator = type { %struct._zend_object_iterator, i64, %struct._zval_struct }
%struct._zend_object_iterator = type { %struct._zend_object, %struct._zval_struct, ptr, i64 }

@.str.1 = private unnamed_addr constant [6 x i8] c"00000\00", align 1

; Function Attrs: alwaysinline nounwind uwtable
define internal zeroext i8 @zval_get_type(ptr noundef %0) #3 {
  %2 = alloca ptr, align 8
  store ptr %0, ptr %2, align 8, !tbaa !47
  %3 = load ptr, ptr %2, align 8, !tbaa !47
  %4 = getelementptr inbounds nuw %struct._zval_struct, ptr %3, i32 0, i32 1
  %5 = getelementptr inbounds nuw %struct.anon.4, ptr %4, i32 0, i32 0
  %6 = load i8, ptr %5, align 8, !tbaa !45
  ret i8 %6
}

; Function Attrs: inlinehint nounwind uwtable
define internal ptr @php_pdo_stmt_fetch_object(ptr noundef %0) #7 {
  %2 = alloca ptr, align 8
  store ptr %0, ptr %2, align 8, !tbaa !108
  %3 = load ptr, ptr %2, align 8, !tbaa !108
  %4 = getelementptr inbounds i8, ptr %3, i64 -160
  ret ptr %4
}

; Function Attrs: nounwind uwtable
define internal void @pdo_stmt_iter_move_forwards(ptr noundef %0) #0 {
  %2 = alloca ptr, align 8
  %3 = alloca ptr, align 8
  %4 = alloca ptr, align 8
  %5 = alloca i32, align 4
  store ptr %0, ptr %2, align 8, !tbaa !216
  call void @llvm.lifetime.start.p0(i64 8, ptr %3) #14
  %6 = load ptr, ptr %2, align 8, !tbaa !216
  store ptr %6, ptr %3, align 8, !tbaa !163
  call void @llvm.lifetime.start.p0(i64 8, ptr %4) #14
  %7 = load ptr, ptr %3, align 8, !tbaa !163
  %8 = getelementptr inbounds nuw %struct.php_pdo_iterator, ptr %7, i32 0, i32 0
  %9 = getelementptr inbounds nuw %struct._zend_object_iterator, ptr %8, i32 0, i32 1
  %10 = getelementptr inbounds nuw %struct._zval_struct, ptr %9, i32 0, i32 0
  %11 = load ptr, ptr %10, align 8, !tbaa !45
  %12 = call ptr @php_pdo_stmt_fetch_object(ptr noundef %11)
  store ptr %12, ptr %4, align 8, !tbaa !4
  %13 = load ptr, ptr %3, align 8, !tbaa !163
  %14 = getelementptr inbounds nuw %struct.php_pdo_iterator, ptr %13, i32 0, i32 2
  %15 = call zeroext i8 @zval_get_type(ptr noundef %14)
  %16 = zext i8 %15 to i32
  %17 = icmp eq i32 %16, 0
  br i1 %17, label %27, label %18

18:                                               ; preds = %1
  %19 = load ptr, ptr %3, align 8, !tbaa !163
  %20 = getelementptr inbounds nuw %struct.php_pdo_iterator, ptr %19, i32 0, i32 2
  call void @zval_ptr_dtor(ptr noundef %20)
  br label %21

21:                                               ; preds = %18
  %22 = load ptr, ptr %3, align 8, !tbaa !163
  %23 = getelementptr inbounds nuw %struct.php_pdo_iterator, ptr %22, i32 0, i32 2
  %24 = getelementptr inbounds nuw %struct._zval_struct, ptr %23, i32 0, i32 1
  store i32 0, ptr %24, align 8, !tbaa !45
  br label %25

25:                                               ; preds = %21
  br label %26

26:                                               ; preds = %25
  br label %27

27:                                               ; preds = %26, %1
  %28 = load ptr, ptr %4, align 8, !tbaa !4
  %29 = load ptr, ptr %3, align 8, !tbaa !163
  %30 = getelementptr inbounds nuw %struct.php_pdo_iterator, ptr %29, i32 0, i32 2
  %31 = call zeroext i1 @do_fetch(ptr noundef %28, ptr noundef %30, i32 noundef 0, i32 noundef 0, i64 noundef 0, ptr noundef null)
  br i1 %31, label %52, label %32

32:                                               ; preds = %27
  %33 = load ptr, ptr %4, align 8, !tbaa !4
  %34 = getelementptr inbounds nuw %struct._pdo_stmt_t, ptr %33, i32 0, i32 2
  %35 = getelementptr inbounds [6 x i8], ptr %34, i64 0, i64 0
  %36 = call i32 @strcmp(ptr noundef %35, ptr noundef @.str.1) #16
  %37 = icmp ne i32 %36, 0
  br i1 %37, label %38, label %43

38:                                               ; preds = %32
  %39 = load ptr, ptr %4, align 8, !tbaa !4
  %40 = getelementptr inbounds nuw %struct._pdo_stmt_t, ptr %39, i32 0, i32 12
  %41 = load ptr, ptr %40, align 8, !tbaa !30
  %42 = load ptr, ptr %4, align 8, !tbaa !4
  call void @pdo_handle_error(ptr noundef %41, ptr noundef %42)
  br label %43

43:                                               ; preds = %38, %32
  %44 = load ptr, ptr %3, align 8, !tbaa !163
  %45 = getelementptr inbounds nuw %struct.php_pdo_iterator, ptr %44, i32 0, i32 1
  store i64 -1, ptr %45, align 8, !tbaa !169
  br label %46

46:                                               ; preds = %43
  %47 = load ptr, ptr %3, align 8, !tbaa !163
  %48 = getelementptr inbounds nuw %struct.php_pdo_iterator, ptr %47, i32 0, i32 2
  %49 = getelementptr inbounds nuw %struct._zval_struct, ptr %48, i32 0, i32 1
  store i32 0, ptr %49, align 8, !tbaa !45
  br label %50

50:                                               ; preds = %46
  br label %51

51:                                               ; preds = %50
  store i32 1, ptr %5, align 4
  br label %57

52:                                               ; preds = %27
  %53 = load ptr, ptr %3, align 8, !tbaa !163
  %54 = getelementptr inbounds nuw %struct.php_pdo_iterator, ptr %53, i32 0, i32 1
  %55 = load i64, ptr %54, align 8, !tbaa !169
  %56 = add i64 %55, 1
  store i64 %56, ptr %54, align 8, !tbaa !169
  store i32 0, ptr %5, align 4
  br label %57

57:                                               ; preds = %52, %51
  call void @llvm.lifetime.end.p0(i64 8, ptr %4) #14
  call void @llvm.lifetime.end.p0(i64 8, ptr %3) #14
  %58 = load i32, ptr %5, align 4
  switch i32 %58, label %60 [
    i32 0, label %59
    i32 1, label %59
  ]

59:                                               ; preds = %57, %57
  ret void

60:                                               ; preds = %57
  unreachable
}