; Function Attrs: nounwind uwtable
define internal void @pdo_stmt_iter_move_forwards(ptr noundef %0) #0 {
  %2 = getelementptr inbounds nuw i8, ptr %0, i64 56
  %3 = load ptr, ptr %2, align 8, !tbaa !37
  %4 = getelementptr inbounds i8, ptr %3, i64 -160
  %5 = getelementptr inbounds nuw i8, ptr %0, i64 96
  %6 = getelementptr inbounds nuw i8, ptr %0, i64 104
  %7 = load i8, ptr %6, align 8, !tbaa !37
  %8 = icmp eq i8 %7, 0
  br i1 %8, label %10, label %9

9:                                                ; preds = %1
  tail call void @zval_ptr_dtor(ptr noundef nonnull %5) #17
  store i32 0, ptr %6, align 8, !tbaa !37
  br label %10

10:                                               ; preds = %9, %1
  %11 = tail call fastcc zeroext i1 @do_fetch(ptr noundef nonnull %4, ptr noundef nonnull %5, i32 noundef 0, i32 noundef 0, i64 noundef 0, ptr noundef null)
  br i1 %11, label %20, label %12

12:                                               ; preds = %10
  %13 = getelementptr inbounds i8, ptr %3, i64 -144
  %14 = tail call i32 @strcmp(ptr noundef nonnull dereferenceable(1) %13, ptr noundef nonnull dereferenceable(6) @.str.1) #18
  %.not = icmp eq i32 %14, 0
  br i1 %.not, label %18, label %15

15:                                               ; preds = %12
  %16 = getelementptr inbounds i8, ptr %3, i64 -48
  %17 = load ptr, ptr %16, align 8, !tbaa !27
  tail call void @pdo_handle_error(ptr noundef %17, ptr noundef nonnull %4) #17
  br label %18

18:                                               ; preds = %15, %12
  %19 = getelementptr inbounds nuw i8, ptr %0, i64 88
  store i64 -1, ptr %19, align 8, !tbaa !154
  store i32 0, ptr %6, align 8, !tbaa !37
  br label %24

20:                                               ; preds = %10
  %21 = getelementptr inbounds nuw i8, ptr %0, i64 88
  %22 = load i64, ptr %21, align 8, !tbaa !154
  %23 = add i64 %22, 1
  store i64 %23, ptr %21, align 8, !tbaa !154
  br label %24

24:                                               ; preds = %20, %18
  ret void
}